; Function Attrs: nounwind uwtable
define internal fastcc noalias nonnull ptr @_init_l_Lean_Server_FileWorker_locationLinksOfInfo___closed__3() unnamed_addr #0 {
  %1 = load ptr, ptr @l_Lean_Server_FileWorker_handleCompletion___lambda__1___closed__1, align 8, !tbaa !10
  tail call void @lean_inc_heartbeat() #8
  %2 = tail call noalias ptr @mi_malloc_small(i64 noundef 32) #8
  %3 = icmp eq ptr %2, null
  br i1 %3, label %4, label %lean_alloc_closure.exit

4:                                                ; preds = %0
  tail call void @lean_internal_panic_out_of_memory() #9
  unreachable

lean_alloc_closure.exit:                          ; preds = %0
  %5 = getelementptr inbounds nuw i8, ptr %2, i64 4
  store i32 1, ptr %2, align 4, !tbaa !4
  store i32 -184549344, ptr %5, align 4
  %6 = getelementptr inbounds nuw i8, ptr %2, i64 8
  store ptr @l_ReaderT_pure___at_Lean_Meta_etaStruct_x3f_sameParams___spec__1___rarg___boxed, ptr %6, align 8, !tbaa !10
  %7 = getelementptr inbounds nuw i8, ptr %2, i64 16
  store i16 6, ptr %7, align 8, !tbaa !14
  %8 = getelementptr inbounds nuw i8, ptr %2, i64 18
  store i16 1, ptr %8, align 2, !tbaa !14
  %9 = getelementptr inbounds nuw i8, ptr %2, i64 24
  store ptr %1, ptr %9, align 8, !tbaa !10
  ret ptr %2
}